target datalayout = "e-m:e-p270:32:32-p271:32:32-p272:64:64-i64:64-f80:128-n8:16:32:64-S128"
target triple = "x86_64-pc-linux-gnu"

@.str = private unnamed_addr constant [3 x i8] c"%d\00", align 1
@.str.1 = private unnamed_addr constant [4 x i8] c"%s\0A\00", align 1
@.str.2 = private unnamed_addr constant [3 x i8] c"%s\00", align 1
@.str.3 = private unnamed_addr constant [2 x i8] c"\0A\00", align 1

; Function Attrs: noinline nounwind uwtable
define dso_local i32 @main() #0 {
  %1 = alloca i32, align 4
  %2 = alloca [100 x i8], align 16
  %3 = alloca [100 x i8], align 16
  %4 = alloca [100 x i32], align 16
  %5 = alloca [100 x i32], align 16
  %6 = alloca i32, align 4
  %7 = alloca i32, align 4
  %8 = alloca i32, align 4
  %9 = alloca i32, align 4
  %10 = alloca i32, align 4
  %11 = alloca i32, align 4
  %12 = alloca i32, align 4
  store i32 0, i32* %1, align 4
  %13 = call i32 (i8*, ...) @__isoc99_scanf(i8* getelementptr inbounds ([3 x i8], [3 x i8]* @.str, i64 0, i64 0), i32* %10)
  store i32 0, i32* %9, align 4
  br label %14

14:                                               ; preds = %144, %0
  %15 = load i32, i32* %9, align 4
  %16 = load i32, i32* %10, align 4
  %17 = icmp slt i32 %15, %16
  br i1 %17, label %18, label %147

18:                                               ; preds = %14
  %19 = getelementptr inbounds [100 x i8], [100 x i8]* %2, i64 0, i64 0
  %20 = call i32 (i8*, ...) @__isoc99_scanf(i8* getelementptr inbounds ([4 x i8], [4 x i8]* @.str.1, i64 0, i64 0), i8* %19)
  %21 = getelementptr inbounds [100 x i8], [100 x i8]* %3, i64 0, i64 0
  %22 = call i32 (i8*, ...) @__isoc99_scanf(i8* getelementptr inbounds ([3 x i8], [3 x i8]* @.str.2, i64 0, i64 0), i8* %21)
  %23 = getelementptr inbounds [100 x i32], [100 x i32]* %4, i64 0, i64 0
  %24 = bitcast i32* %23 to i8*
  call void @llvm.memset.p0i8.i64(i8* align 16 %24, i8 0, i64 400, i1 false)
  %25 = getelementptr inbounds [100 x i32], [100 x i32]* %5, i64 0, i64 0
  %26 = bitcast i32* %25 to i8*
  call void @llvm.memset.p0i8.i64(i8* align 16 %26, i8 0, i64 400, i1 false)
  %27 = getelementptr inbounds [100 x i8], [100 x i8]* %2, i64 0, i64 0
  %28 = call i64 @strlen(i8* %27) #4
  %29 = trunc i64 %28 to i32
  store i32 %29, i32* %11, align 4
  store i32 0, i32* %7, align 4
  %30 = load i32, i32* %11, align 4
  %31 = sub nsw i32 %30, 1
  store i32 %31, i32* %6, align 4
  br label %32

32:                                               ; preds = %46, %18
  %33 = load i32, i32* %6, align 4
  %34 = icmp sge i32 %33, 0
  br i1 %34, label %35, label %49

35:                                               ; preds = %32
  %36 = load i32, i32* %6, align 4
  %37 = sext i32 %36 to i64
  %38 = getelementptr inbounds [100 x i8], [100 x i8]* %2, i64 0, i64 %37
  %39 = load i8, i8* %38, align 1
  %40 = sext i8 %39 to i32
  %41 = sub nsw i32 %40, 48
  %42 = load i32, i32* %7, align 4
  %43 = add nsw i32 %42, 1
  store i32 %43, i32* %7, align 4
  %44 = sext i32 %42 to i64
  %45 = getelementptr inbounds [100 x i32], [100 x i32]* %4, i64 0, i64 %44
  store i32 %41, i32* %45, align 4
  br label %46

46:                                               ; preds = %35
  %47 = load i32, i32* %6, align 4
  %48 = add nsw i32 %47, -1
  store i32 %48, i32* %6, align 4
  br label %32

49:                                               ; preds = %32
  %50 = getelementptr inbounds [100 x i8], [100 x i8]* %3, i64 0, i64 0
  %51 = call i64 @strlen(i8* %50) #4
  %52 = trunc i64 %51 to i32
  store i32 %52, i32* %12, align 4
  store i32 0, i32* %7, align 4
  %53 = load i32, i32* %12, align 4
  %54 = sub nsw i32 %53, 1
  store i32 %54, i32* %6, align 4
  br label %55

55:                                               ; preds = %69, %49
  %56 = load i32, i32* %6, align 4
  %57 = icmp sge i32 %56, 0
  br i1 %57, label %58, label %72

58:                                               ; preds = %55
  %59 = load i32, i32* %6, align 4
  %60 = sext i32 %59 to i64
  %61 = getelementptr inbounds [100 x i8], [100 x i8]* %3, i64 0, i64 %60
  %62 = load i8, i8* %61, align 1
  %63 = sext i8 %62 to i32
  %64 = sub nsw i32 %63, 48
  %65 = load i32, i32* %7, align 4
  %66 = add nsw i32 %65, 1
  store i32 %66, i32* %7, align 4
  %67 = sext i32 %65 to i64
  %68 = getelementptr inbounds [100 x i32], [100 x i32]* %5, i64 0, i64 %67
  store i32 %64, i32* %68, align 4
  br label %69

69:                                               ; preds = %58
  %70 = load i32, i32* %6, align 4
  %71 = add nsw i32 %70, -1
  store i32 %71, i32* %6, align 4
  br label %55

72:                                               ; preds = %55
  store i32 0, i32* %6, align 4
  br label %73

73:                                               ; preds = %110, %72
  %74 = load i32, i32* %6, align 4
  %75 = icmp slt i32 %74, 100
  br i1 %75, label %76, label %113

76:                                               ; preds = %73
  %77 = load i32, i32* %6, align 4
  %78 = sext i32 %77 to i64
  %79 = getelementptr inbounds [100 x i32], [100 x i32]* %4, i64 0, i64 %78
  %80 = load i32, i32* %79, align 4
  %81 = load i32, i32* %6, align 4
  %82 = sext i32 %81 to i64
  %83 = getelementptr inbounds [100 x i32], [100 x i32]* %5, i64 0, i64 %82
  %84 = load i32, i32* %83, align 4
  %85 = sub nsw i32 %80, %84
  %86 = load i32, i32* %6, align 4
  %87 = sext i32 %86 to i64
  %88 = getelementptr inbounds [100 x i32], [100 x i32]* %4, i64 0, i64 %87
  store i32 %85, i32* %88, align 4
  %89 = load i32, i32* %6, align 4
  %90 = sext i32 %89 to i64
  %91 = getelementptr inbounds [100 x i32], [100 x i32]* %4, i64 0, i64 %90
  %92 = load i32, i32* %91, align 4
  %93 = icmp slt i32 %92, 0
  br i1 %93, label %94, label %109

94:                                               ; preds = %76
  %95 = load i32, i32* %6, align 4
  %96 = sext i32 %95 to i64
  %97 = getelementptr inbounds [100 x i32], [100 x i32]* %4, i64 0, i64 %96
  %98 = load i32, i32* %97, align 4
  %99 = add nsw i32 %98, 10
  %100 = load i32, i32* %6, align 4
  %101 = sext i32 %100 to i64
  %102 = getelementptr inbounds [100 x i32], [100 x i32]* %4, i64 0, i64 %101
  store i32 %99, i32* %102, align 4
  %103 = load i32, i32* %6, align 4
  %104 = add nsw i32 %103, 1
  %105 = sext i32 %104 to i64
  %106 = getelementptr inbounds [100 x i32], [100 x i32]* %4, i64 0, i64 %105
  %107 = load i32, i32* %106, align 4
  %108 = add nsw i32 %107, -1
  store i32 %108, i32* %106, align 4
  br label %109

109:                                              ; preds = %94, %76
  br label %110

110:                                              ; preds = %109
  %111 = load i32, i32* %6, align 4
  %112 = add nsw i32 %111, 1
  store i32 %112, i32* %6, align 4
  br label %73

113:                                              ; preds = %73
  store i32 99, i32* %8, align 4
  br label %114

114:                                              ; preds = %125, %113
  %115 = load i32, i32* %8, align 4
  %116 = sext i32 %115 to i64
  %117 = getelementptr inbounds [100 x i32], [100 x i32]* %4, i64 0, i64 %116
  %118 = load i32, i32* %117, align 4
  %119 = icmp eq i32 %118, 0
  br i1 %119, label %120, label %123

120:                                              ; preds = %114
  %121 = load i32, i32* %8, align 4
  %122 = icmp sgt i32 %121, 0
  br label %123

123:                                              ; preds = %120, %114
  %124 = phi i1 [ false, %114 ], [ %122, %120 ]
  br i1 %124, label %125, label %128

125:                                              ; preds = %123
  %126 = load i32, i32* %8, align 4
  %127 = add nsw i32 %126, -1
  store i32 %127, i32* %8, align 4
  br label %114

128:                                              ; preds = %123
  %129 = load i32, i32* %8, align 4
  store i32 %129, i32* %6, align 4
  br label %130

130:                                              ; preds = %139, %128
  %131 = load i32, i32* %6, align 4
  %132 = icmp sge i32 %131, 0
  br i1 %132, label %133, label %142

133:                                              ; preds = %130
  %134 = load i32, i32* %6, align 4
  %135 = sext i32 %134 to i64
  %136 = getelementptr inbounds [100 x i32], [100 x i32]* %4, i64 0, i64 %135
  %137 = load i32, i32* %136, align 4
  %138 = call i32 (i8*, ...) @printf(i8* getelementptr inbounds ([3 x i8], [3 x i8]* @.str, i64 0, i64 0), i32 %137)
  br label %139

139:                                              ; preds = %133
  %140 = load i32, i32* %6, align 4
  %141 = add nsw i32 %140, -1
  store i32 %141, i32* %6, align 4
  br label %130

142:                                              ; preds = %130
  %143 = call i32 (i8*, ...) @printf(i8* getelementptr inbounds ([2 x i8], [2 x i8]* @.str.3, i64 0, i64 0))
  br label %144

144:                                              ; preds = %142
  %145 = load i32, i32* %9, align 4
  %146 = add nsw i32 %145, 1
  store i32 %146, i32* %9, align 4
  br label %14

147:                                              ; preds = %14
  ret i32 0
}