; Function Attrs: nofree nounwind sspstrong uwtable
define dso_local i32 @main() local_unnamed_addr #0 {
  %1 = alloca [100 x i8], align 16
  %2 = alloca [100 x i8], align 16
  %3 = alloca [100 x i32], align 16
  %4 = alloca [100 x i32], align 16
  %5 = alloca i32, align 4
  %6 = getelementptr inbounds [100 x i8], [100 x i8]* %1, i64 0, i64 0
  call void @llvm.lifetime.start.p0i8(i64 100, i8* nonnull %6) #6
  %7 = getelementptr inbounds [100 x i8], [100 x i8]* %2, i64 0, i64 0
  call void @llvm.lifetime.start.p0i8(i64 100, i8* nonnull %7) #6
  %8 = bitcast [100 x i32]* %3 to i8*
  call void @llvm.lifetime.start.p0i8(i64 400, i8* nonnull %8) #6
  %9 = bitcast [100 x i32]* %4 to i8*
  call void @llvm.lifetime.start.p0i8(i64 400, i8* nonnull %9) #6
  %10 = bitcast i32* %5 to i8*
  call void @llvm.lifetime.start.p0i8(i64 4, i8* nonnull %10) #6
  %11 = call i32 (i8*, ...) @__isoc99_scanf(i8* getelementptr inbounds ([3 x i8], [3 x i8]* @.str, i64 0, i64 0), i32* nonnull %5)
  %12 = load i32, i32* %5, align 4, !tbaa !5
  %13 = icmp sgt i32 %12, 0
  br i1 %13, label %14, label %279

14:                                               ; preds = %0, %274
  %15 = phi i32 [ %276, %274 ], [ 0, %0 ]
  %16 = call i32 (i8*, ...) @__isoc99_scanf(i8* getelementptr inbounds ([4 x i8], [4 x i8]* @.str.1, i64 0, i64 0), i8* nonnull %6)
  %17 = call i32 (i8*, ...) @__isoc99_scanf(i8* getelementptr inbounds ([3 x i8], [3 x i8]* @.str.2, i64 0, i64 0), i8* nonnull %7)
  call void @llvm.memset.p0i8.i64(i8* noundef nonnull align 16 dereferenceable(400) %8, i8 0, i64 400, i1 false)
  call void @llvm.memset.p0i8.i64(i8* noundef nonnull align 16 dereferenceable(400) %9, i8 0, i64 400, i1 false)
  %18 = call i64 @strlen(i8* noundef nonnull %6) #7
  %19 = trunc i64 %18 to i32
  %20 = icmp sgt i32 %19, 0
  br i1 %20, label %21, label %124

21:                                               ; preds = %14
  %22 = and i64 %18, 4294967295
  %23 = icmp ult i64 %22, 8
  br i1 %23, label %62, label %24

24:                                               ; preds = %21
  %25 = add nsw i64 %22, -1
  %26 = add nsw i32 %19, -1
  %27 = trunc i64 %25 to i32
  %28 = icmp ult i32 %26, %27
  %29 = icmp ugt i64 %25, 4294967295
  %30 = or i1 %28, %29
  br i1 %30, label %62, label %31

31:                                               ; preds = %24
  %32 = and i64 %18, 7
  %33 = sub nsw i64 %22, %32
  %34 = trunc i64 %33 to i32
  %35 = sub i32 %19, %34
  br label %36

36:                                               ; preds = %36, %31
  %37 = phi i64 [ 0, %31 ], [ %58, %36 ]
  %38 = xor i64 %37, -1
  %39 = add i64 %18, %38
  %40 = and i64 %39, 4294967295
  %41 = getelementptr inbounds [100 x i8], [100 x i8]* %1, i64 0, i64 %40
  %42 = getelementptr inbounds i8, i8* %41, i64 -3
  %43 = bitcast i8* %42 to <4 x i8>*
  %44 = load <4 x i8>, <4 x i8>* %43, align 1, !tbaa !9
  %45 = shufflevector <4 x i8> %44, <4 x i8> poison, <4 x i32> <i32 3, i32 2, i32 1, i32 0>
  %46 = getelementptr inbounds i8, i8* %41, i64 -7
  %47 = bitcast i8* %46 to <4 x i8>*
  %48 = load <4 x i8>, <4 x i8>* %47, align 1, !tbaa !9
  %49 = shufflevector <4 x i8> %48, <4 x i8> poison, <4 x i32> <i32 3, i32 2, i32 1, i32 0>
  %50 = sext <4 x i8> %45 to <4 x i32>
  %51 = sext <4 x i8> %49 to <4 x i32>
  %52 = add nsw <4 x i32> %50, <i32 -48, i32 -48, i32 -48, i32 -48>
  %53 = add nsw <4 x i32> %51, <i32 -48, i32 -48, i32 -48, i32 -48>
  %54 = getelementptr inbounds [100 x i32], [100 x i32]* %3, i64 0, i64 %37
  %55 = bitcast i32* %54 to <4 x i32>*
  store <4 x i32> %52, <4 x i32>* %55, align 16, !tbaa !5
  %56 = getelementptr inbounds i32, i32* %54, i64 4
  %57 = bitcast i32* %56 to <4 x i32>*
  store <4 x i32> %53, <4 x i32>* %57, align 16, !tbaa !5
  %58 = add nuw i64 %37, 8
  %59 = icmp eq i64 %58, %33
  br i1 %59, label %60, label %36, !llvm.loop !10

60:                                               ; preds = %36
  %61 = icmp eq i64 %32, 0
  br i1 %61, label %124, label %62

62:                                               ; preds = %24, %21, %60
  %63 = phi i64 [ 0, %24 ], [ 0, %21 ], [ %33, %60 ]
  %64 = phi i32 [ %19, %24 ], [ %19, %21 ], [ %35, %60 ]
  %65 = sub i64 %18, %63
  %66 = xor i64 %63, -1
  %67 = add nsw i64 %22, %66
  %68 = and i64 %65, 3
  %69 = icmp eq i64 %68, 0
  br i1 %69, label %84, label %70

70:                                               ; preds = %62, %70
  %71 = phi i64 [ %80, %70 ], [ %63, %62 ]
  %72 = phi i32 [ %74, %70 ], [ %64, %62 ]
  %73 = phi i64 [ %82, %70 ], [ %68, %62 ]
  %74 = add nsw i32 %72, -1
  %75 = zext i32 %74 to i64
  %76 = getelementptr inbounds [100 x i8], [100 x i8]* %1, i64 0, i64 %75
  %77 = load i8, i8* %76, align 1, !tbaa !9
  %78 = sext i8 %77 to i32
  %79 = add nsw i32 %78, -48
  %80 = add nuw nsw i64 %71, 1
  %81 = getelementptr inbounds [100 x i32], [100 x i32]* %3, i64 0, i64 %71
  store i32 %79, i32* %81, align 4, !tbaa !5
  %82 = add i64 %73, -1
  %83 = icmp eq i64 %82, 0
  br i1 %83, label %84, label %70, !llvm.loop !13

84:                                               ; preds = %70, %62
  %85 = phi i64 [ %63, %62 ], [ %80, %70 ]
  %86 = phi i32 [ %64, %62 ], [ %74, %70 ]
  %87 = icmp ult i64 %67, 3
  br i1 %87, label %124, label %88

88:                                               ; preds = %84, %88
  %89 = phi i64 [ %121, %88 ], [ %85, %84 ]
  %90 = phi i32 [ %115, %88 ], [ %86, %84 ]
  %91 = add nsw i32 %90, -1
  %92 = zext i32 %91 to i64
  %93 = getelementptr inbounds [100 x i8], [100 x i8]* %1, i64 0, i64 %92
  %94 = load i8, i8* %93, align 1, !tbaa !9
  %95 = sext i8 %94 to i32
  %96 = add nsw i32 %95, -48
  %97 = add nuw nsw i64 %89, 1
  %98 = getelementptr inbounds [100 x i32], [100 x i32]* %3, i64 0, i64 %89
  store i32 %96, i32* %98, align 4, !tbaa !5
  %99 = add nsw i32 %90, -2
  %100 = zext i32 %99 to i64
  %101 = getelementptr inbounds [100 x i8], [100 x i8]* %1, i64 0, i64 %100
  %102 = load i8, i8* %101, align 1, !tbaa !9
  %103 = sext i8 %102 to i32
  %104 = add nsw i32 %103, -48
  %105 = add nuw nsw i64 %89, 2
  %106 = getelementptr inbounds [100 x i32], [100 x i32]* %3, i64 0, i64 %97
  store i32 %104, i32* %106, align 4, !tbaa !5
  %107 = add nsw i32 %90, -3
  %108 = zext i32 %107 to i64
  %109 = getelementptr inbounds [100 x i8], [100 x i8]* %1, i64 0, i64 %108
  %110 = load i8, i8* %109, align 1, !tbaa !9
  %111 = sext i8 %110 to i32
  %112 = add nsw i32 %111, -48
  %113 = add nuw nsw i64 %89, 3
  %114 = getelementptr inbounds [100 x i32], [100 x i32]* %3, i64 0, i64 %105
  store i32 %112, i32* %114, align 4, !tbaa !5
  %115 = add nsw i32 %90, -4
  %116 = zext i32 %115 to i64
  %117 = getelementptr inbounds [100 x i8], [100 x i8]* %1, i64 0, i64 %116
  %118 = load i8, i8* %117, align 1, !tbaa !9
  %119 = sext i8 %118 to i32
  %120 = add nsw i32 %119, -48
  %121 = add nuw nsw i64 %89, 4
  %122 = getelementptr inbounds [100 x i32], [100 x i32]* %3, i64 0, i64 %113
  store i32 %120, i32* %122, align 4, !tbaa !5
  %123 = icmp eq i64 %121, %22
  br i1 %123, label %124, label %88, !llvm.loop !15

124:                                              ; preds = %84, %88, %60, %14
  %125 = call i64 @strlen(i8* noundef nonnull %7) #7
  %126 = trunc i64 %125 to i32
  %127 = icmp sgt i32 %126, 0
  br i1 %127, label %128, label %231

128:                                              ; preds = %124
  %129 = and i64 %125, 4294967295
  %130 = icmp ult i64 %129, 8
  br i1 %130, label %169, label %131

131:                                              ; preds = %128
  %132 = add nsw i64 %129, -1
  %133 = add nsw i32 %126, -1
  %134 = trunc i64 %132 to i32
  %135 = icmp ult i32 %133, %134
  %136 = icmp ugt i64 %132, 4294967295
  %137 = or i1 %135, %136
  br i1 %137, label %169, label %138

138:                                              ; preds = %131
  %139 = and i64 %125, 7
  %140 = sub nsw i64 %129, %139
  %141 = trunc i64 %140 to i32
  %142 = sub i32 %126, %141
  br label %143

143:                                              ; preds = %143, %138
  %144 = phi i64 [ 0, %138 ], [ %165, %143 ]
  %145 = xor i64 %144, -1
  %146 = add i64 %125, %145
  %147 = and i64 %146, 4294967295
  %148 = getelementptr inbounds [100 x i8], [100 x i8]* %2, i64 0, i64 %147
  %149 = getelementptr inbounds i8, i8* %148, i64 -3
  %150 = bitcast i8* %149 to <4 x i8>*
  %151 = load <4 x i8>, <4 x i8>* %150, align 1, !tbaa !9
  %152 = shufflevector <4 x i8> %151, <4 x i8> poison, <4 x i32> <i32 3, i32 2, i32 1, i32 0>
  %153 = getelementptr inbounds i8, i8* %148, i64 -7
  %154 = bitcast i8* %153 to <4 x i8>*
  %155 = load <4 x i8>, <4 x i8>* %154, align 1, !tbaa !9
  %156 = shufflevector <4 x i8> %155, <4 x i8> poison, <4 x i32> <i32 3, i32 2, i32 1, i32 0>
  %157 = sext <4 x i8> %152 to <4 x i32>
  %158 = sext <4 x i8> %156 to <4 x i32>
  %159 = add nsw <4 x i32> %157, <i32 -48, i32 -48, i32 -48, i32 -48>
  %160 = add nsw <4 x i32> %158, <i32 -48, i32 -48, i32 -48, i32 -48>
  %161 = getelementptr inbounds [100 x i32], [100 x i32]* %4, i64 0, i64 %144
  %162 = bitcast i32* %161 to <4 x i32>*
  store <4 x i32> %159, <4 x i32>* %162, align 16, !tbaa !5
  %163 = getelementptr inbounds i32, i32* %161, i64 4
  %164 = bitcast i32* %163 to <4 x i32>*
  store <4 x i32> %160, <4 x i32>* %164, align 16, !tbaa !5
  %165 = add nuw i64 %144, 8
  %166 = icmp eq i64 %165, %140
  br i1 %166, label %167, label %143, !llvm.loop !16

167:                                              ; preds = %143
  %168 = icmp eq i64 %139, 0
  br i1 %168, label %231, label %169

169:                                              ; preds = %131, %128, %167
  %170 = phi i64 [ 0, %131 ], [ 0, %128 ], [ %140, %167 ]
  %171 = phi i32 [ %126, %131 ], [ %126, %128 ], [ %142, %167 ]
  %172 = sub i64 %125, %170
  %173 = xor i64 %170, -1
  %174 = add nsw i64 %129, %173
  %175 = and i64 %172, 3
  %176 = icmp eq i64 %175, 0
  br i1 %176, label %191, label %177

177:                                              ; preds = %169, %177
  %178 = phi i64 [ %187, %177 ], [ %170, %169 ]
  %179 = phi i32 [ %181, %177 ], [ %171, %169 ]
  %180 = phi i64 [ %189, %177 ], [ %175, %169 ]
  %181 = add nsw i32 %179, -1
  %182 = zext i32 %181 to i64
  %183 = getelementptr inbounds [100 x i8], [100 x i8]* %2, i64 0, i64 %182
  %184 = load i8, i8* %183, align 1, !tbaa !9
  %185 = sext i8 %184 to i32
  %186 = add nsw i32 %185, -48
  %187 = add nuw nsw i64 %178, 1
  %188 = getelementptr inbounds [100 x i32], [100 x i32]* %4, i64 0, i64 %178
  store i32 %186, i32* %188, align 4, !tbaa !5
  %189 = add i64 %180, -1
  %190 = icmp eq i64 %189, 0
  br i1 %190, label %191, label %177, !llvm.loop !17

191:                                              ; preds = %177, %169
  %192 = phi i64 [ %170, %169 ], [ %187, %177 ]
  %193 = phi i32 [ %171, %169 ], [ %181, %177 ]
  %194 = icmp ult i64 %174, 3
  br i1 %194, label %231, label %195

195:                                              ; preds = %191, %195
  %196 = phi i64 [ %228, %195 ], [ %192, %191 ]
  %197 = phi i32 [ %222, %195 ], [ %193, %191 ]
  %198 = add nsw i32 %197, -1
  %199 = zext i32 %198 to i64
  %200 = getelementptr inbounds [100 x i8], [100 x i8]* %2, i64 0, i64 %199
  %201 = load i8, i8* %200, align 1, !tbaa !9
  %202 = sext i8 %201 to i32
  %203 = add nsw i32 %202, -48
  %204 = add nuw nsw i64 %196, 1
  %205 = getelementptr inbounds [100 x i32], [100 x i32]* %4, i64 0, i64 %196
  store i32 %203, i32* %205, align 4, !tbaa !5
  %206 = add nsw i32 %197, -2
  %207 = zext i32 %206 to i64
  %208 = getelementptr inbounds [100 x i8], [100 x i8]* %2, i64 0, i64 %207
  %209 = load i8, i8* %208, align 1, !tbaa !9
  %210 = sext i8 %209 to i32
  %211 = add nsw i32 %210, -48
  %212 = add nuw nsw i64 %196, 2
  %213 = getelementptr inbounds [100 x i32], [100 x i32]* %4, i64 0, i64 %204
  store i32 %211, i32* %213, align 4, !tbaa !5
  %214 = add nsw i32 %197, -3
  %215 = zext i32 %214 to i64
  %216 = getelementptr inbounds [100 x i8], [100 x i8]* %2, i64 0, i64 %215
  %217 = load i8, i8* %216, align 1, !tbaa !9
  %218 = sext i8 %217 to i32
  %219 = add nsw i32 %218, -48
  %220 = add nuw nsw i64 %196, 3
  %221 = getelementptr inbounds [100 x i32], [100 x i32]* %4, i64 0, i64 %212
  store i32 %219, i32* %221, align 4, !tbaa !5
  %222 = add nsw i32 %197, -4
  %223 = zext i32 %222 to i64
  %224 = getelementptr inbounds [100 x i8], [100 x i8]* %2, i64 0, i64 %223
  %225 = load i8, i8* %224, align 1, !tbaa !9
  %226 = sext i8 %225 to i32
  %227 = add nsw i32 %226, -48
  %228 = add nuw nsw i64 %196, 4
  %229 = getelementptr inbounds [100 x i32], [100 x i32]* %4, i64 0, i64 %220
  store i32 %227, i32* %229, align 4, !tbaa !5
  %230 = icmp eq i64 %228, %129
  br i1 %230, label %231, label %195, !llvm.loop !18

231:                                              ; preds = %191, %195, %167, %124
  br label %232

232:                                              ; preds = %231, %248
  %233 = phi i64 [ %249, %248 ], [ 0, %231 ]
  %234 = getelementptr inbounds [100 x i32], [100 x i32]* %3, i64 0, i64 %233
  %235 = load i32, i32* %234, align 4, !tbaa !5
  %236 = getelementptr inbounds [100 x i32], [100 x i32]* %4, i64 0, i64 %233
  %237 = load i32, i32* %236, align 4, !tbaa !5
  %238 = sub nsw i32 %235, %237
  store i32 %238, i32* %234, align 4, !tbaa !5
  %239 = icmp slt i32 %238, 0
  br i1 %239, label %242, label %240

240:                                              ; preds = %232
  %241 = add nuw nsw i64 %233, 1
  br label %248

242:                                              ; preds = %232
  %243 = add nsw i32 %238, 10
  store i32 %243, i32* %234, align 4, !tbaa !5
  %244 = add nuw nsw i64 %233, 1
  %245 = getelementptr inbounds [100 x i32], [100 x i32]* %3, i64 0, i64 %244
  %246 = load i32, i32* %245, align 4, !tbaa !5
  %247 = add nsw i32 %246, -1
  store i32 %247, i32* %245, align 4, !tbaa !5
  br label %248

248:                                              ; preds = %240, %242
  %249 = phi i64 [ %241, %240 ], [ %244, %242 ]
  %250 = icmp eq i64 %249, 100
  br i1 %250, label %251, label %232, !llvm.loop !19

251:                                              ; preds = %248, %251
  %252 = phi i32 [ %259, %251 ], [ 99, %248 ]
  %253 = zext i32 %252 to i64
  %254 = getelementptr inbounds [100 x i32], [100 x i32]* %3, i64 0, i64 %253
  %255 = load i32, i32* %254, align 4, !tbaa !5
  %256 = icmp eq i32 %255, 0
  %257 = icmp ne i32 %252, 0
  %258 = select i1 %256, i1 %257, i1 false
  %259 = add nsw i32 %252, -1
  br i1 %258, label %251, label %260, !llvm.loop !20

260:                                              ; preds = %251
  %261 = icmp sgt i32 %252, -1
  br i1 %261, label %262, label %274

262:                                              ; preds = %260
  %263 = call i32 (i8*, ...) @printf(i8* nonnull dereferenceable(1) getelementptr inbounds ([3 x i8], [3 x i8]* @.str, i64 0, i64 0), i32 %255)
  %264 = icmp eq i32 %252, 0
  br i1 %264, label %274, label %265, !llvm.loop !21

265:                                              ; preds = %262
  %266 = zext i32 %252 to i64
  br label %267

267:                                              ; preds = %265, %267
  %268 = phi i64 [ %269, %267 ], [ %266, %265 ]
  %269 = add nsw i64 %268, -1
  %270 = getelementptr inbounds [100 x i32], [100 x i32]* %3, i64 0, i64 %269
  %271 = load i32, i32* %270, align 4, !tbaa !5
  %272 = call i32 (i8*, ...) @printf(i8* nonnull dereferenceable(1) getelementptr inbounds ([3 x i8], [3 x i8]* @.str, i64 0, i64 0), i32 %271)
  %273 = icmp sgt i64 %268, 1
  br i1 %273, label %267, label %274, !llvm.loop !21

274:                                              ; preds = %267, %262, %260
  %275 = call i32 @putchar(i32 10)
  %276 = add nuw nsw i32 %15, 1
  %277 = load i32, i32* %5, align 4, !tbaa !5
  %278 = icmp slt i32 %276, %277
  br i1 %278, label %14, label %279, !llvm.loop !22

279:                                              ; preds = %274, %0
  call void @llvm.lifetime.end.p0i8(i64 4, i8* nonnull %10) #6
  call void @llvm.lifetime.end.p0i8(i64 400, i8* nonnull %9) #6
  call void @llvm.lifetime.end.p0i8(i64 400, i8* nonnull %8) #6
  call void @llvm.lifetime.end.p0i8(i64 100, i8* nonnull %7) #6
  call void @llvm.lifetime.end.p0i8(i64 100, i8* nonnull %6) #6
  ret i32 0
}